target datalayout = "e-m:e-p270:32:32-p271:32:32-p272:64:64-i64:64-i128:128-f80:128-n8:16:32:64-S128"
target triple = "x86_64-pc-linux-gnu"

%struct.Py_buffer = type { ptr, ptr, i64, i64, i32, i32, ptr, ptr, ptr, ptr, ptr }

@PyExc_ValueError = external global ptr, align 8
@PyExc_OverflowError = external global ptr, align 8
@.str.116 = private unnamed_addr constant [17 x i8] c"key is too long.\00", align 1
@.str.117 = private unnamed_addr constant [17 x i8] c"msg is too long.\00", align 1

; Function Attrs: nounwind uwtable
define internal ptr @_hashlib_hmac_singleshot_impl(ptr noundef %0, ptr noundef %1, ptr noundef %2, ptr noundef %3) #0 {
  %5 = alloca ptr, align 8
  %6 = alloca ptr, align 8
  %7 = alloca ptr, align 8
  %8 = alloca ptr, align 8
  %9 = alloca ptr, align 8
  %10 = alloca [64 x i8], align 16
  %11 = alloca i32, align 4
  %12 = alloca ptr, align 8
  %13 = alloca ptr, align 8
  %14 = alloca i32, align 4
  %15 = alloca ptr, align 8
  store ptr %0, ptr %6, align 8, !tbaa !14
  store ptr %1, ptr %7, align 8, !tbaa !3
  store ptr %2, ptr %8, align 8, !tbaa !3
  store ptr %3, ptr %9, align 8, !tbaa !14
  call void @llvm.lifetime.start.p0(i64 64, ptr %10) #9
  call void @llvm.memset.p0.i64(ptr align 16 %10, i8 0, i64 64, i1 false)
  call void @llvm.lifetime.start.p0(i64 4, ptr %11) #9
  store i32 0, ptr %11, align 4, !tbaa !19
  call void @llvm.lifetime.start.p0(i64 8, ptr %12) #9
  call void @llvm.lifetime.start.p0(i64 8, ptr %13) #9
  %16 = load ptr, ptr %7, align 8, !tbaa !3
  %17 = getelementptr inbounds nuw %struct.Py_buffer, ptr %16, i32 0, i32 2
  %18 = load i64, ptr %17, align 8, !tbaa !40
  %19 = icmp sgt i64 %18, 2147483647
  br i1 %19, label %20, label %22

20:                                               ; preds = %4
  %21 = load ptr, ptr @PyExc_OverflowError, align 8, !tbaa !14
  call void @PyErr_SetString(ptr noundef %21, ptr noundef @.str.116)
  store ptr null, ptr %5, align 8
  store i32 1, ptr %14, align 4
  br label %68

22:                                               ; preds = %4
  %23 = load ptr, ptr %8, align 8, !tbaa !3
  %24 = getelementptr inbounds nuw %struct.Py_buffer, ptr %23, i32 0, i32 2
  %25 = load i64, ptr %24, align 8, !tbaa !40
  %26 = icmp sgt i64 %25, 2147483647
  br i1 %26, label %27, label %29

27:                                               ; preds = %22
  %28 = load ptr, ptr @PyExc_OverflowError, align 8, !tbaa !14
  call void @PyErr_SetString(ptr noundef %28, ptr noundef @.str.117)
  store ptr null, ptr %5, align 8
  store i32 1, ptr %14, align 4
  br label %68

29:                                               ; preds = %22
  %30 = load ptr, ptr %6, align 8, !tbaa !14
  %31 = load ptr, ptr %9, align 8, !tbaa !14
  %32 = call ptr @py_digest_by_digestmod(ptr noundef %30, ptr noundef %31, i32 noundef 2)
  store ptr %32, ptr %13, align 8, !tbaa !17
  %33 = load ptr, ptr %13, align 8, !tbaa !17
  %34 = icmp eq ptr %33, null
  br i1 %34, label %35, label %36

35:                                               ; preds = %29
  store ptr null, ptr %5, align 8
  store i32 1, ptr %14, align 4
  br label %68

36:                                               ; preds = %29
  call void @llvm.lifetime.start.p0(i64 8, ptr %15) #9
  %37 = call ptr @PyEval_SaveThread()
  store ptr %37, ptr %15, align 8, !tbaa !41
  %38 = load ptr, ptr %13, align 8, !tbaa !17
  %39 = load ptr, ptr %7, align 8, !tbaa !3
  %40 = getelementptr inbounds nuw %struct.Py_buffer, ptr %39, i32 0, i32 0
  %41 = load ptr, ptr %40, align 8, !tbaa !43
  %42 = load ptr, ptr %7, align 8, !tbaa !3
  %43 = getelementptr inbounds nuw %struct.Py_buffer, ptr %42, i32 0, i32 2
  %44 = load i64, ptr %43, align 8, !tbaa !40
  %45 = trunc i64 %44 to i32
  %46 = load ptr, ptr %8, align 8, !tbaa !3
  %47 = getelementptr inbounds nuw %struct.Py_buffer, ptr %46, i32 0, i32 0
  %48 = load ptr, ptr %47, align 8, !tbaa !43
  %49 = load ptr, ptr %8, align 8, !tbaa !3
  %50 = getelementptr inbounds nuw %struct.Py_buffer, ptr %49, i32 0, i32 2
  %51 = load i64, ptr %50, align 8, !tbaa !40
  %52 = trunc i64 %51 to i32
  %53 = sext i32 %52 to i64
  %54 = getelementptr inbounds [64 x i8], ptr %10, i64 0, i64 0
  %55 = call ptr @HMAC(ptr noundef %38, ptr noundef %41, i32 noundef %45, ptr noundef %48, i64 noundef %53, ptr noundef %54, ptr noundef %11)
  store ptr %55, ptr %12, align 8, !tbaa !21
  %56 = load ptr, ptr %15, align 8, !tbaa !41
  call void @PyEval_RestoreThread(ptr noundef %56)
  call void @llvm.lifetime.end.p0(i64 8, ptr %15) #9
  %57 = load ptr, ptr %13, align 8, !tbaa !17
  call void @EVP_MD_free(ptr noundef %57)
  %58 = load ptr, ptr %12, align 8, !tbaa !21
  %59 = icmp eq ptr %58, null
  br i1 %59, label %60, label %63

60:                                               ; preds = %36
  %61 = load ptr, ptr @PyExc_ValueError, align 8, !tbaa !14
  %62 = call ptr (ptr, ptr, ...) @_setException(ptr noundef %61, ptr noundef null)
  store ptr null, ptr %5, align 8
  store i32 1, ptr %14, align 4
  br label %68

63:                                               ; preds = %36
  %64 = getelementptr inbounds [64 x i8], ptr %10, i64 0, i64 0
  %65 = load i32, ptr %11, align 4, !tbaa !19
  %66 = zext i32 %65 to i64
  %67 = call ptr @PyBytes_FromStringAndSize(ptr noundef %64, i64 noundef %66)
  store ptr %67, ptr %5, align 8
  store i32 1, ptr %14, align 4
  br label %68

68:                                               ; preds = %63, %60, %35, %27, %20
  call void @llvm.lifetime.end.p0(i64 8, ptr %13) #9
  call void @llvm.lifetime.end.p0(i64 8, ptr %12) #9
  call void @llvm.lifetime.end.p0(i64 4, ptr %11) #9
  call void @llvm.lifetime.end.p0(i64 64, ptr %10) #9
  %69 = load ptr, ptr %5, align 8
  ret ptr %69
}

; Function Attrs: nounwind uwtable
define internal ptr @_hashlib_hmac_singleshot(ptr noundef %0, ptr noundef %1, i64 noundef %2, ptr noundef %3) #0 {
  %5 = alloca ptr, align 8
  %6 = alloca ptr, align 8
  %7 = alloca i64, align 8
  %8 = alloca ptr, align 8
  %9 = alloca ptr, align 8
  %10 = alloca [3 x ptr], align 16
  %11 = alloca %struct.Py_buffer, align 8
  %12 = alloca %struct.Py_buffer, align 8
  %13 = alloca ptr, align 8
  store ptr %0, ptr %5, align 8, !tbaa !14
  store ptr %1, ptr %6, align 8, !tbaa !30
  store i64 %2, ptr %7, align 8, !tbaa !32
  store ptr %3, ptr %8, align 8, !tbaa !14
  call void @llvm.lifetime.start.p0(i64 8, ptr %9) #9
  store ptr null, ptr %9, align 8, !tbaa !14
  call void @llvm.lifetime.start.p0(i64 24, ptr %10) #9
  call void @llvm.lifetime.start.p0(i64 80, ptr %11) #9
  call void @llvm.memset.p0.i64(ptr align 8 %11, i8 0, i64 80, i1 false)
  call void @llvm.lifetime.start.p0(i64 80, ptr %12) #9
  call void @llvm.memset.p0.i64(ptr align 8 %12, i8 0, i64 80, i1 false)
  call void @llvm.lifetime.start.p0(i64 8, ptr %13) #9
  %14 = load ptr, ptr %8, align 8, !tbaa !14
  %15 = icmp eq ptr %14, null
  br i1 %15, label %16, label %27

16:                                               ; preds = %4
  %17 = load i64, ptr %7, align 8, !tbaa !32
  %18 = icmp sle i64 3, %17
  br i1 %18, label %19, label %27

19:                                               ; preds = %16
  %20 = load i64, ptr %7, align 8, !tbaa !32
  %21 = icmp sle i64 %20, 3
  br i1 %21, label %22, label %27

22:                                               ; preds = %19
  %23 = load ptr, ptr %6, align 8, !tbaa !30
  %24 = icmp ne ptr %23, null
  br i1 %24, label %25, label %27

25:                                               ; preds = %22
  %26 = load ptr, ptr %6, align 8, !tbaa !30
  br label %33

27:                                               ; preds = %22, %19, %16, %4
  %28 = load ptr, ptr %6, align 8, !tbaa !30
  %29 = load i64, ptr %7, align 8, !tbaa !32
  %30 = load ptr, ptr %8, align 8, !tbaa !14
  %31 = getelementptr inbounds [3 x ptr], ptr %10, i64 0, i64 0
  %32 = call ptr @_PyArg_UnpackKeywords(ptr noundef %28, i64 noundef %29, ptr noundef null, ptr noundef %30, ptr noundef @_hashlib_hmac_singleshot._parser, i32 noundef 3, i32 noundef 3, i32 noundef 0, i32 noundef 0, ptr noundef %31)
  br label %33

33:                                               ; preds = %27, %25
  %34 = phi ptr [ %26, %25 ], [ %32, %27 ]
  store ptr %34, ptr %6, align 8, !tbaa !30
  %35 = load ptr, ptr %6, align 8, !tbaa !30
  %36 = icmp ne ptr %35, null
  br i1 %36, label %38, label %37

37:                                               ; preds = %33
  br label %59

38:                                               ; preds = %33
  %39 = load ptr, ptr %6, align 8, !tbaa !30
  %40 = getelementptr ptr, ptr %39, i64 0
  %41 = load ptr, ptr %40, align 8, !tbaa !14
  %42 = call i32 @PyObject_GetBuffer(ptr noundef %41, ptr noundef %11, i32 noundef 0)
  %43 = icmp ne i32 %42, 0
  br i1 %43, label %44, label %45

44:                                               ; preds = %38
  br label %59

45:                                               ; preds = %38
  %46 = load ptr, ptr %6, align 8, !tbaa !30
  %47 = getelementptr ptr, ptr %46, i64 1
  %48 = load ptr, ptr %47, align 8, !tbaa !14
  %49 = call i32 @PyObject_GetBuffer(ptr noundef %48, ptr noundef %12, i32 noundef 0)
  %50 = icmp ne i32 %49, 0
  br i1 %50, label %51, label %52

51:                                               ; preds = %45
  br label %59

52:                                               ; preds = %45
  %53 = load ptr, ptr %6, align 8, !tbaa !30
  %54 = getelementptr ptr, ptr %53, i64 2
  %55 = load ptr, ptr %54, align 8, !tbaa !14
  store ptr %55, ptr %13, align 8, !tbaa !14
  %56 = load ptr, ptr %5, align 8, !tbaa !14
  %57 = load ptr, ptr %13, align 8, !tbaa !14
  %58 = call ptr @_hashlib_hmac_singleshot_impl(ptr noundef %56, ptr noundef %11, ptr noundef %12, ptr noundef %57)
  store ptr %58, ptr %9, align 8, !tbaa !14
  br label %59

59:                                               ; preds = %52, %51, %44, %37
  %60 = getelementptr inbounds nuw %struct.Py_buffer, ptr %11, i32 0, i32 1
  %61 = load ptr, ptr %60, align 8, !tbaa !67
  %62 = icmp ne ptr %61, null
  br i1 %62, label %63, label %64

63:                                               ; preds = %59
  call void @PyBuffer_Release(ptr noundef %11)
  br label %64

64:                                               ; preds = %63, %59
  %65 = getelementptr inbounds nuw %struct.Py_buffer, ptr %12, i32 0, i32 1
  %66 = load ptr, ptr %65, align 8, !tbaa !67
  %67 = icmp ne ptr %66, null
  br i1 %67, label %68, label %69

68:                                               ; preds = %64
  call void @PyBuffer_Release(ptr noundef %12)
  br label %69

69:                                               ; preds = %68, %64
  %70 = load ptr, ptr %9, align 8, !tbaa !14
  call void @llvm.lifetime.end.p0(i64 8, ptr %13) #9
  call void @llvm.lifetime.end.p0(i64 80, ptr %12) #9
  call void @llvm.lifetime.end.p0(i64 80, ptr %11) #9
  call void @llvm.lifetime.end.p0(i64 24, ptr %10) #9
  call void @llvm.lifetime.end.p0(i64 8, ptr %9) #9
  ret ptr %70
}