; Function Attrs: nounwind uwtable
define internal ptr @_hashlib_hmac_singleshot(ptr noundef %0, ptr noundef %1, i64 noundef %2, ptr noundef %3) #0 {
  %5 = alloca [64 x i8], align 16
  %6 = alloca i32, align 4
  %7 = alloca [3 x ptr], align 16
  %8 = alloca %struct.Py_buffer, align 8
  %9 = alloca %struct.Py_buffer, align 8
  call void @llvm.lifetime.start.p0(i64 24, ptr nonnull %7) #9
  call void @llvm.lifetime.start.p0(i64 80, ptr nonnull %8) #9
  call void @llvm.memset.p0.i64(ptr noundef nonnull align 8 dereferenceable(80) %8, i8 0, i64 80, i1 false)
  call void @llvm.lifetime.start.p0(i64 80, ptr nonnull %9) #9
  call void @llvm.memset.p0.i64(ptr noundef nonnull align 8 dereferenceable(80) %9, i8 0, i64 80, i1 false)
  %10 = icmp eq ptr %3, null
  %11 = icmp eq i64 %2, 3
  %or.cond3 = and i1 %11, %10
  %12 = icmp ne ptr %1, null
  %or.cond5 = and i1 %12, %or.cond3
  br i1 %or.cond5, label %.thread, label %13

13:                                               ; preds = %4
  %14 = call ptr @_PyArg_UnpackKeywords(ptr noundef %1, i64 noundef %2, ptr noundef null, ptr noundef %3, ptr noundef nonnull @_hashlib_hmac_singleshot._parser, i32 noundef 3, i32 noundef 3, i32 noundef 0, i32 noundef 0, ptr noundef nonnull %7) #9
  %.not = icmp eq ptr %14, null
  br i1 %.not, label %55, label %.thread

.thread:                                          ; preds = %4, %13
  %15 = phi ptr [ %14, %13 ], [ %1, %4 ]
  %16 = load ptr, ptr %15, align 8, !tbaa !23
  %17 = call i32 @PyObject_GetBuffer(ptr noundef %16, ptr noundef nonnull %8, i32 noundef 0) #9
  %.not21 = icmp eq i32 %17, 0
  br i1 %.not21, label %18, label %55

18:                                               ; preds = %.thread
  %19 = getelementptr i8, ptr %15, i64 8
  %20 = load ptr, ptr %19, align 8, !tbaa !23
  %21 = call i32 @PyObject_GetBuffer(ptr noundef %20, ptr noundef nonnull %9, i32 noundef 0) #9
  %.not22 = icmp eq i32 %21, 0
  br i1 %.not22, label %22, label %55

22:                                               ; preds = %18
  %23 = getelementptr i8, ptr %15, i64 16
  %24 = load ptr, ptr %23, align 8, !tbaa !23
  call void @llvm.lifetime.start.p0(i64 64, ptr nonnull %5) #9
  call void @llvm.memset.p0.i64(ptr noundef nonnull align 16 dereferenceable(64) %5, i8 0, i64 64, i1 false)
  call void @llvm.lifetime.start.p0(i64 4, ptr nonnull %6) #9
  store i32 0, ptr %6, align 4, !tbaa !41
  %25 = getelementptr inbounds nuw i8, ptr %8, i64 16
  %26 = load i64, ptr %25, align 8, !tbaa !40
  %27 = icmp sgt i64 %26, 2147483647
  br i1 %27, label %28, label %30

28:                                               ; preds = %22
  %29 = load ptr, ptr @PyExc_OverflowError, align 8, !tbaa !23
  call void @PyErr_SetString(ptr noundef %29, ptr noundef nonnull @.str.116) #9
  br label %_hashlib_hmac_singleshot_impl.exit

30:                                               ; preds = %22
  %31 = getelementptr inbounds nuw i8, ptr %9, i64 16
  %32 = load i64, ptr %31, align 8, !tbaa !40
  %33 = icmp sgt i64 %32, 2147483647
  br i1 %33, label %34, label %36

34:                                               ; preds = %30
  %35 = load ptr, ptr @PyExc_OverflowError, align 8, !tbaa !23
  call void @PyErr_SetString(ptr noundef %35, ptr noundef nonnull @.str.117) #9
  br label %_hashlib_hmac_singleshot_impl.exit

36:                                               ; preds = %30
  %37 = call fastcc ptr @py_digest_by_digestmod(ptr noundef %0, ptr noundef %24)
  %38 = icmp eq ptr %37, null
  br i1 %38, label %_hashlib_hmac_singleshot_impl.exit, label %39

39:                                               ; preds = %36
  %40 = call ptr @PyEval_SaveThread() #9
  %41 = load ptr, ptr %8, align 8, !tbaa !39
  %42 = load i64, ptr %25, align 8, !tbaa !40
  %43 = trunc i64 %42 to i32
  %44 = load ptr, ptr %9, align 8, !tbaa !39
  %45 = load i64, ptr %31, align 8, !tbaa !40
  %sext.i = shl i64 %45, 32
  %46 = ashr exact i64 %sext.i, 32
  %47 = call ptr @HMAC(ptr noundef nonnull %37, ptr noundef %41, i32 noundef %43, ptr noundef %44, i64 noundef %46, ptr noundef nonnull %5, ptr noundef nonnull %6) #9
  call void @PyEval_RestoreThread(ptr noundef %40) #9
  call void @EVP_MD_free(ptr noundef nonnull %37) #9
  %48 = icmp eq ptr %47, null
  br i1 %48, label %49, label %51

49:                                               ; preds = %39
  %50 = load ptr, ptr @PyExc_ValueError, align 8, !tbaa !23
  call void (ptr, ptr, ...) @_setException(ptr noundef %50, ptr noundef null)
  br label %_hashlib_hmac_singleshot_impl.exit

51:                                               ; preds = %39
  %52 = load i32, ptr %6, align 4, !tbaa !41
  %53 = zext i32 %52 to i64
  %54 = call ptr @PyBytes_FromStringAndSize(ptr noundef nonnull %5, i64 noundef %53) #9
  br label %_hashlib_hmac_singleshot_impl.exit

_hashlib_hmac_singleshot_impl.exit:               ; preds = %28, %34, %36, %49, %51
  %.0.i = phi ptr [ null, %28 ], [ null, %34 ], [ null, %49 ], [ %54, %51 ], [ null, %36 ]
  call void @llvm.lifetime.end.p0(i64 4, ptr nonnull %6) #9
  call void @llvm.lifetime.end.p0(i64 64, ptr nonnull %5) #9
  br label %55

55:                                               ; preds = %18, %.thread, %13, %_hashlib_hmac_singleshot_impl.exit
  %.0 = phi ptr [ null, %.thread ], [ null, %18 ], [ %.0.i, %_hashlib_hmac_singleshot_impl.exit ], [ null, %13 ]
  %56 = getelementptr inbounds nuw i8, ptr %8, i64 8
  %57 = load ptr, ptr %56, align 8, !tbaa !54
  %.not23 = icmp eq ptr %57, null
  br i1 %.not23, label %59, label %58

58:                                               ; preds = %55
  call void @PyBuffer_Release(ptr noundef nonnull %8) #9
  br label %59

59:                                               ; preds = %58, %55
  %60 = getelementptr inbounds nuw i8, ptr %9, i64 8
  %61 = load ptr, ptr %60, align 8, !tbaa !54
  %.not24 = icmp eq ptr %61, null
  br i1 %.not24, label %63, label %62

62:                                               ; preds = %59
  call void @PyBuffer_Release(ptr noundef nonnull %9) #9
  br label %63

63:                                               ; preds = %62, %59
  call void @llvm.lifetime.end.p0(i64 80, ptr nonnull %9) #9
  call void @llvm.lifetime.end.p0(i64 80, ptr nonnull %8) #9
  call void @llvm.lifetime.end.p0(i64 24, ptr nonnull %7) #9
  ret ptr %.0
}